; Function Attrs: mustprogress uwtable
define hidden noundef ptr @_Z22mk_split_clause_tacticRK10params_ref(ptr noundef nonnull align 8 dereferenceable(8) %p) local_unnamed_addr #3 personality ptr @__gxx_personality_v0 {
entry:
  %call = tail call noalias noundef ptr @_ZN6memory8allocateEm(i64 noundef 16)
  %m_ref_count.i.i = getelementptr inbounds i8, ptr %call, i64 8
  store i32 0, ptr %m_ref_count.i.i, align 8
  store ptr getelementptr inbounds ({ [25 x ptr] }, ptr @_ZTV19split_clause_tactic, i64 0, i32 0, i64 2), ptr %call, align 8
  %call.i1.i = tail call noundef zeroext i1 @_ZNK10params_ref8get_boolEPKcb(ptr noundef nonnull align 8 dereferenceable(8) %p, ptr noundef nonnull @.str.5, i1 noundef zeroext false)
  %m_largest_clause.i.i = getelementptr inbounds i8, ptr %call, i64 12
  %frombool.i.i = zext i1 %call.i1.i to i8
  store i8 %frombool.i.i, ptr %m_largest_clause.i.i, align 4
  %call1 = tail call noundef ptr @_Z5cleanP6tactic(ptr noundef nonnull %call)
  ret ptr %call1
}